; Function Attrs: mustprogress nofree norecurse nosync nounwind willreturn memory(read, inaccessiblemem: none) uwtable
define float @nk_layout_ratio_from_pixel(ptr noundef readonly captures(address_is_null) %0, float noundef %1) local_unnamed_addr #28 {
  %.not = icmp eq ptr %0, null
  br i1 %.not, label %17, label %3

3:                                                ; preds = %2
  %4 = getelementptr inbounds nuw i8, ptr %0, i64 18520
  %5 = load ptr, ptr %4, align 8, !tbaa !824
  %.not17 = icmp eq ptr %5, null
  br i1 %.not17, label %17, label %6

6:                                                ; preds = %3
  %7 = getelementptr inbounds nuw i8, ptr %5, i64 168
  %8 = load ptr, ptr %7, align 8, !tbaa !825
  %.not18 = icmp eq ptr %8, null
  br i1 %.not18, label %17, label %9

9:                                                ; preds = %6
  %10 = getelementptr inbounds nuw i8, ptr %5, i64 76
  %11 = load float, ptr %10, align 4, !tbaa !900
  %12 = fdiv float %1, %11
  %13 = fcmp olt float %12, 1.000000e+00
  %14 = fcmp olt float %12, 0.000000e+00
  %15 = and i1 %13, %14
  %.not19 = xor i1 %13, true
  %brmerge = or i1 %14, %.not19
  %.mux = select i1 %15, float 0.000000e+00, float 1.000000e+00
  br i1 %brmerge, label %17, label %16

16:                                               ; preds = %9
  br label %17

17:                                               ; preds = %9, %16, %2, %3, %6
  %.0 = phi float [ 0.000000e+00, %6 ], [ 0.000000e+00, %3 ], [ 0.000000e+00, %2 ], [ %.mux, %9 ], [ %12, %16 ]
  ret float %.0
}